; Function Attrs: nounwind uwtable
define dso_local noundef i32 @virtual_stat(ptr noundef readonly captures(none) %0, ptr noundef captures(none) %1) local_unnamed_addr #0 {
  %3 = alloca %struct._cwd_state, align 8
  call void @llvm.lifetime.start.p0(i64 16, ptr nonnull %3) #22
  %4 = load i64, ptr getelementptr inbounds nuw (i8, ptr @cwd_globals, i64 8), align 8, !tbaa !13
  %5 = getelementptr inbounds nuw i8, ptr %3, i64 8
  store i64 %4, ptr %5, align 8, !tbaa !12
  %6 = add i64 %4, 1
  %7 = tail call noalias ptr @_emalloc(i64 noundef %6) #24
  store ptr %7, ptr %3, align 8, !tbaa !4
  %8 = load ptr, ptr @cwd_globals, align 8, !tbaa !15
  %9 = load i64, ptr getelementptr inbounds nuw (i8, ptr @cwd_globals, i64 8), align 8, !tbaa !13
  %10 = add i64 %9, 1
  tail call void @llvm.memcpy.p0.p0.i64(ptr align 1 %7, ptr align 1 %8, i64 %10, i1 false)
  %11 = call i32 @virtual_file_ex(ptr noundef nonnull %3, ptr noundef %0, ptr noundef null, i32 noundef 2)
  %.not = icmp eq i32 %11, 0
  %12 = load ptr, ptr %3, align 8, !tbaa !4
  br i1 %.not, label %13, label %16

13:                                               ; preds = %2
  %14 = call i32 @stat(ptr noundef %12, ptr noundef %1) #22
  %15 = load ptr, ptr %3, align 8, !tbaa !4
  br label %16

16:                                               ; preds = %2, %13
  %.sink = phi ptr [ %15, %13 ], [ %12, %2 ]
  %.0 = phi i32 [ %14, %13 ], [ -1, %2 ]
  call void @_efree(ptr noundef %.sink) #22
  call void @llvm.lifetime.end.p0(i64 16, ptr nonnull %3) #22
  ret i32 %.0
}